Certificate:
    Data:
        Version: 3 (0x2)
        Serial Number: 0 (0x0)
        Signature Algorithm: sha512WithRSAEncryption
        Issuer: C=US, ST=CA, L=SFO, O=Test org, OU=Test OU, CN=Home CA
        Validity
            Not Before: Feb 26 07:02:59 2022 GMT
            Not After : Feb 21 07:02:59 2042 GMT
        Subject: C=US, ST=CA, L=SFO, O=Test Home, OU=Test OU, CN=Simple SMTP
        Subject Public Key Info:
            Public Key Algorithm: rsaEncryption
                RSA Public-Key: (4096 bit)
                Modulus:
                    00:d6:3a:ce:96:f3:b7:ed:37:03:7e:90:39:2c:c1:
                    ab:0d:48:59:2f:56:af:cc:7d:9b:04:b9:db:e5:49:
                    d6:e4:f7:c1:23:6e:78:d2:17:a5:92:c4:ac:de:68:
                    02:02:68:b7:d9:44:7f:05:44:21:d7:03:f9:9c:30:
                    70:a2:0e:de:ba:d3:5a:b0:d8:5b:3e:37:14:7c:60:
                    ce:45:96:d9:29:16:da:f0:eb:82:17:d7:d3:20:53:
                    4d:cd:be:ba:82:94:34:49:34:4e:a5:21:27:14:a9:
                    33:28:a8:d4:7a:58:e0:23:a5:2c:41:fa:b9:44:aa:
                    6a:44:f7:3a:85:8a:8a:bc:6a:06:f9:4c:0e:23:07:
                    44:7d:a0:6c:09:a3:38:2c:72:08:0f:85:d0:4c:64:
                    69:71:b4:70:8d:22:9f:df:ba:c8:9c:c0:68:76:6a:
                    22:59:cb:80:fb:55:3c:42:16:62:af:b1:5a:a9:61:
                    34:ad:7f:b3:51:66:5f:ad:ef:49:0c:bd:96:1e:6d:
                    fd:10:bc:e8:ca:25:48:40:f2:db:5c:e8:c2:05:f2:
                    f9:77:73:52:24:a2:b0:48:c3:38:e0:51:e4:bc:a9:
                    e9:de:41:82:06:4f:6d:d6:81:74:f4:4a:06:46:46:
                    fb:4e:b3:da:db:18:92:ea:af:29:b9:c7:0f:6b:3a:
                    14:35:1b:90:d6:27:81:62:fd:05:15:1e:2d:43:9c:
                    0e:d0:5a:f4:e5:23:6a:ac:66:2e:2d:1a:d2:51:8a:
                    7b:39:32:84:ed:21:c7:48:14:78:6d:5f:b2:e7:9f:
                    2f:2b:3b:4d:e9:10:ac:46:dc:b5:93:53:a3:ce:46:
                    16:d2:77:ac:0f:a9:02:32:90:67:de:11:fc:72:0a:
                    5a:77:6a:25:a6:57:6c:a2:a3:27:83:31:4d:99:3f:
                    38:dc:f9:90:f2:a2:41:25:56:1d:d6:57:ce:47:cd:
                    5a:ab:e7:37:23:09:0d:c5:eb:db:20:b3:ff:72:4f:
                    19:d8:27:94:81:0d:3e:3f:42:e2:94:2c:67:9f:c2:
                    ec:7f:0f:6f:47:dd:c1:70:49:2d:02:42:60:c7:fc:
                    70:9b:b3:4a:f3:68:a1:db:19:00:bd:5e:2f:71:02:
                    3f:c0:81:0c:6f:f5:7f:64:87:fe:31:e9:33:44:e2:
                    1e:d5:90:fa:79:d1:1c:7e:66:f8:2a:1b:45:46:9b:
                    1f:bd:44:1e:9d:e5:6d:36:b1:4f:cb:26:0d:ec:ec:
                    89:a9:23:0f:ce:80:9c:d8:98:4e:c7:fe:e6:f9:22:
                    f3:cc:52:69:17:bb:f0:82:e3:0c:71:db:50:5b:47:
                    61:4b:a8:00:68:0c:d0:ea:4e:75:da:97:fc:24:7f:
                    a0:46:01
                Exponent: 65537 (0x10001)
        X509v3 extensions:
            X509v3 Subject Key Identifier: 
                95:64:3B:C4:56:89:5A:AA:66:85:52:C3:2B:96:FA:9A:57:C7:C8:B0
            X509v3 Authority Key Identifier: 
                keyid:A7:21:3C:5C:8D:02:BC:60:FF:CE:E5:36:8A:D7:72:9A:FB:EB:29:59

            X509v3 Basic Constraints: 
                CA:FALSE
            X509v3 Key Usage: 
                Digital Signature, Non Repudiation, Key Encipherment
            X509v3 Extended Key Usage: 
                TLS Web Client Authentication, E-mail Protection, TLS Web Server Authentication
            X509v3 Subject Alternative Name: 
                DNS:Simple SMTP, DNS:localhost, IP Address:127.0.0.1, IP Address:0:0:0:0:0:0:0:1
            Netscape Comment: 
                OpenSSL Generated Certificate
    Signature Algorithm: sha512WithRSAEncryption
         1f:9a:eb:7d:72:df:53:7e:c0:e5:ee:5b:85:b0:fd:c7:bb:25:
         97:52:98:38:cc:f5:bf:3a:5f:35:ec:95:f9:39:72:2b:81:41:
         e1:8e:b9:a0:6c:84:da:14:57:a9:9e:49:67:82:6b:3d:2b:9d:
         91:61:6c:b4:5c:40:b4:78:f9:47:bd:e0:96:b6:3d:6a:e8:cb:
         22:c4:46:22:68:f6:99:8d:a2:d6:c2:04:53:52:ba:25:ba:35:
         8a:03:e0:84:92:50:78:54:2f:64:46:93:e8:c9:7b:88:3e:40:
         39:8b:83:0f:e0:ca:5e:30:2d:75:26:34:3d:c7:89:e6:29:a1:
         e7:bb:68:e4:ad:42:73:b7:dd:6a:91:8b:ee:66:da:0e:f1:37:
         45:f8:8b:f1:75:37:05:5b:d9:b2:16:f1:95:f5:4b:21:d8:d4:
         c8:e8:24:ef:f8:fc:01:b3:d3:a0:4d:3b:12:df:b4:44:78:27:
         88:1f:4e:24:9d:29:31:8a:ef:59:c4:b6:d1:4d:84:e6:0b:7f:
         98:37:b2:8f:12:f0:79:ca:cc:69:cb:97:da:8f:c8:b6:87:21:
         c3:e3:19:8c:05:b7:53:85:0c:bc:23:51:55:a7:a5:ab:7a:23:
         ec:38:55:2b:9f:d5:6f:69:e2:d5:6b:14:f8:90:0d:19:a0:3e:
         96:fc:92:ea:e5:75:ff:40:62:b2:11:34:ce:35:77:b7:8c:59:
         94:48:0b:f8:d5:24:fb:30:3e:53:b0:52:a2:31:7e:56:b6:9e:
         92:6c:2f:62:56:0d:50:95:34:be:bb:94:7f:f0:4f:91:68:aa:
         26:eb:9b:11:71:72:91:73:3b:09:f8:27:50:18:19:c6:21:da:
         47:03:0f:bd:99:b5:d1:7e:e4:cc:37:fe:58:43:f3:5e:02:9c:
         00:11:8c:f6:2e:8b:aa:11:92:0f:9c:c5:26:8c:70:5a:7c:c2:
         a2:96:21:c5:e0:97:6e:bf:b8:88:19:8b:e5:7a:88:bc:b8:fc:
         4c:11:86:1d:a2:bc:6d:03:ba:3a:c6:f1:c8:71:ca:f0:ce:da:
         e0:fa:89:6f:d4:1b:4c:56:53:6f:07:1a:aa:cf:67:e6:ac:70:
         63:4e:52:f2:df:2e:4d:58:91:25:22:c8:c9:fe:b5:16:d7:f5:
         c4:a8:fb:4f:38:cd:10:dd:11:9e:d5:c2:33:e9:d5:49:ea:42:
         ef:41:c4:f7:2f:6a:e1:6f:6f:05:80:d0:67:f8:6c:5b:7f:4e:
         36:b3:45:96:8a:72:df:41:e3:96:99:7c:d6:2f:d8:78:91:38:
         2e:2d:85:d8:ea:4e:58:81:74:4c:d1:e3:44:49:de:21:e1:33:
         2d:b6:39:45:b9:81:82:a0
-----BEGIN CERTIFICATE-----
MIIGLDCCBBSgAwIBAgIBADANBgkqhkiG9w0BAQ0FADBfMQswCQYDVQQGEwJVUzEL
MAkGA1UECAwCQ0ExDDAKBgNVBAcMA1NGTzERMA8GA1UECgwIVGVzdCBvcmcxEDAO
BgNVBAsMB1Rlc3QgT1UxEDAOBgNVBAMMB0hvbWUgQ0EwHhcNMjIwMjI2MDcwMjU5
WhcNNDIwMjIxMDcwMjU5WjBkMQswCQYDVQQGEwJVUzELMAkGA1UECAwCQ0ExDDAK
BgNVBAcMA1NGTzESMBAGA1UECgwJVGVzdCBIb21lMRAwDgYDVQQLDAdUZXN0IE9V
MRQwEgYDVQQDDAtTaW1wbGUgU01UUDCCAiIwDQYJKoZIhvcNAQEBBQADggIPADCC
AgoCggIBANY6zpbzt+03A36QOSzBqw1IWS9Wr8x9mwS52+VJ1uT3wSNueNIXpZLE
rN5oAgJot9lEfwVEIdcD+ZwwcKIO3rrTWrDYWz43FHxgzkWW2SkW2vDrghfX0yBT
Tc2+uoKUNEk0TqUhJxSpMyio1HpY4COlLEH6uUSqakT3OoWKirxqBvlMDiMHRH2g
bAmjOCxyCA+F0ExkaXG0cI0in9+6yJzAaHZqIlnLgPtVPEIWYq+xWqlhNK1/s1Fm
X63vSQy9lh5t/RC86MolSEDy21zowgXy+XdzUiSisEjDOOBR5Lyp6d5BggZPbdaB
dPRKBkZG+06z2tsYkuqvKbnHD2s6FDUbkNYngWL9BRUeLUOcDtBa9OUjaqxmLi0a
0lGKezkyhO0hx0gUeG1fsuefLys7TekQrEbctZNTo85GFtJ3rA+pAjKQZ94R/HIK
WndqJaZXbKKjJ4MxTZk/ONz5kPKiQSVWHdZXzkfNWqvnNyMJDcXr2yCz/3JPGdgn
lIENPj9C4pQsZ5/C7H8Pb0fdwXBJLQJCYMf8cJuzSvNoodsZAL1eL3ECP8CBDG/1
f2SH/jHpM0TiHtWQ+nnRHH5m+CobRUabH71EHp3lbTaxT8smDezsiakjD86AnNiY
Tsf+5vki88xSaRe78ILjDHHbUFtHYUuoAGgM0OpOddqX/CR/oEYBAgMBAAGjge0w
geowHQYDVR0OBBYEFJVkO8RWiVqqZoVSwyuW+ppXx8iwMB8GA1UdIwQYMBaAFKch
PFyNArxg/87lNorXcpr76ylZMAkGA1UdEwQCMAAwCwYDVR0PBAQDAgXgMCcGA1Ud
JQQgMB4GCCsGAQUFBwMCBggrBgEFBQcDBAYIKwYBBQUHAwEwOQYDVR0RBDIwMIIL
U2ltcGxlIFNNVFCCCWxvY2FsaG9zdIcEfwAAAYcQAAAAAAAAAAAAAAAAAAAAATAs
BglghkgBhvhCAQ0EHxYdT3BlblNTTCBHZW5lcmF0ZWQgQ2VydGlmaWNhdGUwDQYJ
KoZIhvcNAQENBQADggIBAB+a631y31N+wOXuW4Ww/ce7JZdSmDjM9b86XzXslfk5
ciuBQeGOuaBshNoUV6meSWeCaz0rnZFhbLRcQLR4+Ue94Ja2PWroyyLERiJo9pmN
otbCBFNSuiW6NYoD4ISSUHhUL2RGk+jJe4g+QDmLgw/gyl4wLXUmND3HieYpoee7
aOStQnO33WqRi+5m2g7xN0X4i/F1NwVb2bIW8ZX1SyHY1MjoJO/4/AGz06BNOxLf
tER4J4gfTiSdKTGK71nEttFNhOYLf5g3so8S8HnKzGnLl9qPyLaHIcPjGYwFt1OF
DLwjUVWnpat6I+w4VSuf1W9p4tVrFPiQDRmgPpb8kurldf9AYrIRNM41d7eMWZRI
C/jVJPswPlOwUqIxfla2npJsL2JWDVCVNL67lH/wT5FoqibrmxFxcpFzOwn4J1AY
GcYh2kcDD72ZtdF+5Mw3/lhD814CnAARjPYui6oRkg+cxSaMcFp8wqKWIcXgl26/
uIgZi+V6iLy4/EwRhh2ivG0DujrG8chxyvDO2uD6iW/UG0xWU28HGqrPZ+ascGNO
UvLfLk1YkSUiyMn+tRbX9cSo+084zRDdEZ7VwjPp1UnqQu9BxPcvauFvbwWA0Gf4
bFt/TjazRZaKct9B45aZfNYv2HiROC4thdjqTliBdEzR40RJ3iHhMy22OUW5gYKg
-----END CERTIFICATE-----
-----BEGIN CERTIFICATE-----
MIIFnzCCA4egAwIBAgIUJldZVAU1B3j+Vbfv+H7/v7d1ducwDQYJKoZIhvcNAQEN
BQAwXzELMAkGA1UEBhMCVVMxCzAJBgNVBAgMAkNBMQwwCgYDVQQHDANTRk8xETAP
BgNVBAoMCFRlc3Qgb3JnMRAwDgYDVQQLDAdUZXN0IE9VMRAwDgYDVQQDDAdIb21l
IENBMB4XDTIyMDIyNjA3MDIxOFoXDTQyMDIyMTA3MDIxOFowXzELMAkGA1UEBhMC
VVMxCzAJBgNVBAgMAkNBMQwwCgYDVQQHDANTRk8xETAPBgNVBAoMCFRlc3Qgb3Jn
MRAwDgYDVQQLDAdUZXN0IE9VMRAwDgYDVQQDDAdIb21lIENBMIICIjANBgkqhkiG
9w0BAQEFAAOCAg8AMIICCgKCAgEA2XxUrW8gKP44AgglLSBBS07RLo+Tx+b0pfKY
6yc5MO6y+X4hbsGSTJnw6scxzGijL+YCcEoU98Pjni5xpyso/lyu2riY7D56ijLt
xmV0NVdHqY3wPkbqSC+AUUwLYytmUB2pDOLVEnJEWcaD+sDrcy0IkO111vEG5AKH
9qVFguh7lDL1xIzg9XUjDvjA/YQiT4jTxnRs9wLq6sEe8JGLowsV236lAXTYI1wZ
Y4iX/2ctbuzGkrFg9nO9MSKR0ELpx/kva1mRXGX0aUCd6uePzLequU3u8KgNdlg7
7grJunX0WIENgTLWOwby1kt0WKRiXOwYUv9p4tGpThaBOEEOgSqixupuL9L5idn7
1nGuSAUdUNZ2CvJI7VMs8Dc+74rFX2SpAmdgm8pB1vz8CM0VtradE+cPoGyTC+tx
gilLwQisIA3V/6Ss7zZj96D15pfr+VPrQUyh0Kk8IoliprDWQj0H3ouDGxEk0TKF
yyHfU1M894deYnuiGKbF6fL7RWCsX6WFHJaYeIK0B7uiKOnR578fbgVIgBwDPt9G
VW4FLdtdlpb5SNJ6GOYtTpTPeF6/6gGhmm27xzyzTOPpGp5jf5gV7P4CzMgDQ8sS
3Gx2L+H+rOUFjwnPjmJyKjVtjslZkMwzkoLc3kgNOU8CbQR+ekU7Mpf2Qzd3RY10
eSu05LECAwEAAaNTMFEwHQYDVR0OBBYEFKchPFyNArxg/87lNorXcpr76ylZMB8G
A1UdIwQYMBaAFKchPFyNArxg/87lNorXcpr76ylZMA8GA1UdEwEB/wQFMAMBAf8w
DQYJKoZIhvcNAQENBQADggIBAIUGcpZ2VbXKAfyuvOul0i8K3PAl4v+nsvfQlNz4
rCcjWYaNEfdtioDAAIojw74fAtW2kO6+d8Bz9UHJkfmPYBR1KY9SN+IKM9SVTUUO
7ttzK6IzsuA4kfCL8YiE48dBVjA3F9Z3wVG8iIbNb4xgZ+hev79OP1lMQ9chaRgo
LbwZlwwPFKiD+JWpz73KX24Z23ph9ciWHrrK8Xzu5vpDnKGyqMebH9ugU9uR/v5M
+/05V9rAYxDxoWD1Z564eH4ONsIBynBFmViCKE8e9wxDs589FchL4+75fz8Veh4V
jnmXFKk6PtmENJ7ObGuHEYPnPxSfM6NLtUfxHgXCPzQuypUPQHgt8NlHD+5cAbcl
SvWo6aJJ32+K/cuTe8/AMJr9LPznHp0KnrrwWwcixaD64DW94J8Va2e0UE3+bv7S
woWCJHUSnmcIWDnRVseOlVGMcfCW3PRe/SOARh0LVUSjbyu3glHbkUKOu4GPDQAN
d6k3pU7zH5BjwgHMX9y/qXnEa2ufC+8C6QI4VZFbkLxt5OgmQeR6ijXyOKa+ZDEI
SFpKF50sTXaSPmxV66bDvCrOAbnFyVZpCYszIIPk/+6qdNztHCcsDDFuB63QCb2g
dVuT6y7Np+W65eDv8O//bAf5m8lvVa8n2l7UsEbgJCBFEX4yOgOOKXB+eOAb9xNh
UptM
-----END CERTIFICATE-----

